target datalayout = "e-m:e-p270:32:32-p271:32:32-p272:64:64-i64:64-i128:128-f80:128-n8:16:32:64-S128"
target triple = "x86_64-pc-linux-gnu"

%"struct.lean::rb_tree<lean::name, lean::name_quick_cmp>::node" = type { ptr }
%"class.lean::rb_tree" = type { %"struct.lean::rb_tree<lean::name, lean::name_quick_cmp>::node" }
%"struct.lean::name_quick_cmp" = type { i8 }

@_ZN4leanL15g_trace_aliasesE = internal global ptr null, align 8

; Function Attrs: mustprogress nounwind uwtable
define linkonce_odr hidden void @_ZN4lean7rb_treeINS_4nameENS_14name_quick_cmpEE4nodeC2Ev(ptr noundef nonnull align 8 dereferenceable(8) %0) unnamed_addr #4 comdat align 2 {
  %2 = alloca ptr, align 8
  store ptr %0, ptr %2, align 8, !tbaa !86
  %3 = load ptr, ptr %2, align 8
  %4 = getelementptr inbounds nuw %"struct.lean::rb_tree<lean::name, lean::name_quick_cmp>::node", ptr %3, i32 0, i32 0
  store ptr null, ptr %4, align 8, !tbaa !88
  ret void
}

; Function Attrs: inlinehint mustprogress nounwind uwtable
define linkonce_odr hidden void @_ZN4lean7rb_treeINS_4nameENS_14name_quick_cmpEED2Ev(ptr noundef nonnull align 8 dereferenceable(8) %0) unnamed_addr #3 comdat align 2 {
  %2 = alloca ptr, align 8
  store ptr %0, ptr %2, align 8, !tbaa !8
  %3 = load ptr, ptr %2, align 8
  %4 = getelementptr inbounds nuw %"class.lean::rb_tree", ptr %3, i32 0, i32 0
  call void @_ZN4lean7rb_treeINS_4nameENS_14name_quick_cmpEE4nodeD2Ev(ptr noundef nonnull align 8 dereferenceable(8) %4) #17
  ret void
}

; Function Attrs: mustprogress uwtable
define linkonce_odr hidden noundef nonnull align 8 dereferenceable(8) ptr @_ZN4lean7rb_treeINS_4nameENS_14name_quick_cmpEEaSERKS3_(ptr noundef nonnull align 8 dereferenceable(8) %0, ptr noundef nonnull align 8 dereferenceable(8) %1) #0 comdat align 2 {
  %3 = alloca ptr, align 8
  %4 = alloca ptr, align 8
  store ptr %0, ptr %3, align 8, !tbaa !8
  store ptr %1, ptr %4, align 8, !tbaa !8
  %5 = load ptr, ptr %3, align 8
  %6 = load ptr, ptr %4, align 8, !tbaa !8
  %7 = getelementptr inbounds nuw %"class.lean::rb_tree", ptr %6, i32 0, i32 0
  %8 = getelementptr inbounds nuw %"class.lean::rb_tree", ptr %5, i32 0, i32 0
  %9 = call noundef nonnull align 8 dereferenceable(8) ptr @_ZN4lean7rb_treeINS_4nameENS_14name_quick_cmpEE4nodeaSERKS4_(ptr noundef nonnull align 8 dereferenceable(8) %8, ptr noundef nonnull align 8 dereferenceable(8) %7)
  ret ptr %5
}

; Function Attrs: mustprogress uwtable
define linkonce_odr hidden void @_ZN4lean7rb_treeINS_4nameENS_14name_quick_cmpEEC2ERKS2_(ptr noundef nonnull align 8 dereferenceable(8) %0, ptr noundef nonnull align 1 dereferenceable(1) %1) unnamed_addr #0 comdat align 2 {
  %3 = alloca ptr, align 8
  %4 = alloca ptr, align 8
  store ptr %0, ptr %3, align 8, !tbaa !8
  store ptr %1, ptr %4, align 8, !tbaa !14
  %5 = load ptr, ptr %3, align 8
  %6 = getelementptr inbounds nuw %"class.lean::rb_tree", ptr %5, i32 0, i32 0
  call void @_ZN4lean7rb_treeINS_4nameENS_14name_quick_cmpEE4nodeC2Ev(ptr noundef nonnull align 8 dereferenceable(8) %6)
  ret void
}

; Function Attrs: mustprogress uwtable
define hidden void @_ZN4lean26register_trace_class_aliasERKNS_4nameES2_(ptr noundef nonnull align 8 dereferenceable(8) %0, ptr noundef nonnull align 8 dereferenceable(8) %1) #0 personality ptr @__gxx_personality_v0 {
  %3 = alloca ptr, align 8
  %4 = alloca ptr, align 8
  %5 = alloca %"class.lean::rb_tree", align 8
  %6 = alloca %"struct.lean::name_quick_cmp", align 1
  %7 = alloca ptr, align 8
  %8 = alloca ptr, align 8
  %9 = alloca i32, align 4
  store ptr %0, ptr %3, align 8, !tbaa !3
  store ptr %1, ptr %4, align 8, !tbaa !3
  call void @llvm.lifetime.start.p0(i64 8, ptr %5) #17
  call void @llvm.lifetime.start.p0(i64 1, ptr %6) #17
  call void @_ZN4lean7rb_treeINS_4nameENS_14name_quick_cmpEEC2ERKS2_(ptr noundef nonnull align 8 dereferenceable(8) %5, ptr noundef nonnull align 1 dereferenceable(1) %6)
  call void @llvm.lifetime.end.p0(i64 1, ptr %6) #17
  call void @llvm.lifetime.start.p0(i64 8, ptr %7) #17
  %10 = load ptr, ptr @_ZN4leanL15g_trace_aliasesE, align 8, !tbaa !12
  %11 = load ptr, ptr %3, align 8, !tbaa !3
  %12 = invoke noundef ptr @_ZNK4lean6rb_mapINS_4nameENS_7rb_treeIS1_NS_14name_quick_cmpEEES3_E4findERKS1_(ptr noundef nonnull align 8 dereferenceable(8) %10, ptr noundef nonnull align 8 dereferenceable(8) %11)
          to label %13 unwind label %20

13:                                               ; preds = %2
  store ptr %12, ptr %7, align 8, !tbaa !8
  %14 = load ptr, ptr %7, align 8, !tbaa !8
  %15 = icmp ne ptr %14, null
  br i1 %15, label %16, label %24

16:                                               ; preds = %13
  %17 = load ptr, ptr %7, align 8, !tbaa !8
  %18 = invoke noundef nonnull align 8 dereferenceable(8) ptr @_ZN4lean7rb_treeINS_4nameENS_14name_quick_cmpEEaSERKS3_(ptr noundef nonnull align 8 dereferenceable(8) %5, ptr noundef nonnull align 8 dereferenceable(8) %17)
          to label %19 unwind label %20

19:                                               ; preds = %16
  br label %24

20:                                               ; preds = %16, %2
  %21 = landingpad { ptr, i32 }
          cleanup
  %22 = extractvalue { ptr, i32 } %21, 0
  store ptr %22, ptr %8, align 8
  %23 = extractvalue { ptr, i32 } %21, 1
  store i32 %23, ptr %9, align 4
  call void @llvm.lifetime.end.p0(i64 8, ptr %7) #17
  br label %34

24:                                               ; preds = %19, %13
  call void @llvm.lifetime.end.p0(i64 8, ptr %7) #17
  %25 = load ptr, ptr %4, align 8, !tbaa !3
  invoke void @_ZN4lean7rb_treeINS_4nameENS_14name_quick_cmpEE6insertERKS1_(ptr noundef nonnull align 8 dereferenceable(8) %5, ptr noundef nonnull align 8 dereferenceable(8) %25)
          to label %26 unwind label %30

26:                                               ; preds = %24
  %27 = load ptr, ptr @_ZN4leanL15g_trace_aliasesE, align 8, !tbaa !12
  %28 = load ptr, ptr %3, align 8, !tbaa !3
  invoke void @_ZN4lean6rb_mapINS_4nameENS_7rb_treeIS1_NS_14name_quick_cmpEEES3_E6insertERKS1_RKS4_(ptr noundef nonnull align 8 dereferenceable(8) %27, ptr noundef nonnull align 8 dereferenceable(8) %28, ptr noundef nonnull align 8 dereferenceable(8) %5)
          to label %29 unwind label %30

29:                                               ; preds = %26
  call void @_ZN4lean7rb_treeINS_4nameENS_14name_quick_cmpEED2Ev(ptr noundef nonnull align 8 dereferenceable(8) %5) #17
  call void @llvm.lifetime.end.p0(i64 8, ptr %5) #17
  ret void

30:                                               ; preds = %26, %24
  %31 = landingpad { ptr, i32 }
          cleanup
  %32 = extractvalue { ptr, i32 } %31, 0
  store ptr %32, ptr %8, align 8
  %33 = extractvalue { ptr, i32 } %31, 1
  store i32 %33, ptr %9, align 4
  br label %34

34:                                               ; preds = %30, %20
  call void @_ZN4lean7rb_treeINS_4nameENS_14name_quick_cmpEED2Ev(ptr noundef nonnull align 8 dereferenceable(8) %5) #17
  call void @llvm.lifetime.end.p0(i64 8, ptr %5) #17
  br label %35

35:                                               ; preds = %34
  %36 = load ptr, ptr %8, align 8
  %37 = load i32, ptr %9, align 4
  %38 = insertvalue { ptr, i32 } poison, ptr %36, 0
  %39 = insertvalue { ptr, i32 } %38, i32 %37, 1
  resume { ptr, i32 } %39
}