; Function Attrs: mustprogress uwtable
define hidden void @_ZN4lean26register_trace_class_aliasERKNS_4nameES2_(ptr noundef nonnull align 8 dereferenceable(8) %0, ptr noundef nonnull align 8 dereferenceable(8) %1) local_unnamed_addr #0 personality ptr @__gxx_personality_v0 {
  %3 = alloca %"class.lean::rb_tree", align 8
  call void @llvm.lifetime.start.p0(i64 8, ptr nonnull %3) #20
  store ptr null, ptr %3, align 8, !tbaa !22
  %4 = load ptr, ptr @_ZN4leanL15g_trace_aliasesE, align 8, !tbaa !36
  %5 = invoke noundef ptr @_ZNK4lean6rb_mapINS_4nameENS_7rb_treeIS1_NS_14name_quick_cmpEEES3_E4findERKS1_(ptr noundef nonnull align 8 dereferenceable(8) %4, ptr noundef nonnull align 8 dereferenceable(8) %0)
          to label %6 unwind label %9

6:                                                ; preds = %2
  %.not = icmp eq ptr %5, null
  br i1 %.not, label %_ZN4lean7rb_treeINS_4nameENS_14name_quick_cmpEEaSERKS3_.exit, label %7

7:                                                ; preds = %6
  %8 = invoke noundef nonnull align 8 dereferenceable(8) ptr @_ZN4lean7rb_treeINS_4nameENS_14name_quick_cmpEE4nodeaSERKS4_(ptr noundef nonnull align 8 dereferenceable(8) %3, ptr noundef nonnull align 8 dereferenceable(8) %5)
          to label %_ZN4lean7rb_treeINS_4nameENS_14name_quick_cmpEEaSERKS3_.exit unwind label %9

9:                                                ; preds = %7, %2
  %10 = landingpad { ptr, i32 }
          cleanup
  br label %16

_ZN4lean7rb_treeINS_4nameENS_14name_quick_cmpEEaSERKS3_.exit: ; preds = %7, %6
  invoke void @_ZN4lean7rb_treeINS_4nameENS_14name_quick_cmpEE6insertERKS1_(ptr noundef nonnull align 8 dereferenceable(8) %3, ptr noundef nonnull align 8 dereferenceable(8) %1)
          to label %11 unwind label %14

11:                                               ; preds = %_ZN4lean7rb_treeINS_4nameENS_14name_quick_cmpEEaSERKS3_.exit
  %12 = load ptr, ptr @_ZN4leanL15g_trace_aliasesE, align 8, !tbaa !36
  invoke void @_ZN4lean6rb_mapINS_4nameENS_7rb_treeIS1_NS_14name_quick_cmpEEES3_E6insertERKS1_RKS4_(ptr noundef nonnull align 8 dereferenceable(8) %12, ptr noundef nonnull align 8 dereferenceable(8) %0, ptr noundef nonnull align 8 dereferenceable(8) %3)
          to label %13 unwind label %14

13:                                               ; preds = %11
  call void @_ZN4lean7rb_treeINS_4nameENS_14name_quick_cmpEE4nodeD2Ev(ptr noundef nonnull align 8 dereferenceable(8) %3) #20
  call void @llvm.lifetime.end.p0(i64 8, ptr nonnull %3) #20
  ret void

14:                                               ; preds = %11, %_ZN4lean7rb_treeINS_4nameENS_14name_quick_cmpEEaSERKS3_.exit
  %15 = landingpad { ptr, i32 }
          cleanup
  br label %16

16:                                               ; preds = %14, %9
  %.pn = phi { ptr, i32 } [ %15, %14 ], [ %10, %9 ]
  call void @_ZN4lean7rb_treeINS_4nameENS_14name_quick_cmpEE4nodeD2Ev(ptr noundef nonnull align 8 dereferenceable(8) %3) #20
  call void @llvm.lifetime.end.p0(i64 8, ptr nonnull %3) #20
  resume { ptr, i32 } %.pn
}